target datalayout = "e-m:e-p270:32:32-p271:32:32-p272:64:64-i64:64-i128:128-f80:128-n8:16:32:64-S128"
target triple = "x86_64-pc-linux-gnu"

%struct.Zyx_Man_t_ = type { ptr, ptr, i32, i32, i32, i32, i32, ptr, ptr, ptr, ptr, ptr, ptr, [2 x i32], [32 x [32 x i32]], [2 x [64 x i32]], [2 x i32], [1024 x i32], ptr, i64 }
%struct.Bmc_EsPar_t_ = type { i32, i32, i32, i32, i32, i32, i32, i32, i32, i32, i32, i32, i32, i32, i32, i32, i32, ptr }

@stdout = external global ptr, align 8
@.str.16 = private unnamed_addr constant [12 x i8] c"Conf =%9d  \00", align 1
@.str.18 = private unnamed_addr constant [5 x i8] c"Time\00", align 1
@.str.47 = private unnamed_addr constant [5 x i8] c"%s =\00", align 1
@.str.48 = private unnamed_addr constant [11 x i8] c"%9.2f sec\0A\00", align 1
@.str.56 = private unnamed_addr constant [12 x i8] c"Iter %6d : \00", align 1
@.str.57 = private unnamed_addr constant [3 x i8] c"  \00", align 1
@.str.58 = private unnamed_addr constant [11 x i8] c"Cla =%9d  \00", align 1
@.str.59 = private unnamed_addr constant [12 x i8] c"Lazy =%6d  \00", align 1

; Function Attrs: nounwind uwtable
define internal void @Abc_PrintTime(i32 noundef %0, ptr noundef %1, i64 noundef %2) #0 {
  %4 = alloca i32, align 4
  %5 = alloca ptr, align 8
  %6 = alloca i64, align 8
  store i32 %0, ptr %4, align 4
  store ptr %1, ptr %5, align 8
  store i64 %2, ptr %6, align 8
  %7 = load ptr, ptr %5, align 8
  call void (i32, ptr, ...) @Abc_Print(i32 noundef 1, ptr noundef @.str.47, ptr noundef %7)
  %8 = load i64, ptr %6, align 8
  %9 = sitofp i64 %8 to double
  %10 = fmul double 1.000000e+00, %9
  %11 = fdiv double %10, 1.000000e+06
  call void (i32, ptr, ...) @Abc_Print(i32 noundef 1, ptr noundef @.str.48, double noundef %11)
  ret void
}

; Function Attrs: nounwind uwtable
define internal void @Zyx_ManPrint(ptr noundef %0, i32 noundef %1, i32 noundef %2, i32 noundef %3, i64 noundef %4) #0 {
  %6 = alloca ptr, align 8
  %7 = alloca i32, align 4
  %8 = alloca i32, align 4
  %9 = alloca i32, align 4
  %10 = alloca i64, align 8
  store ptr %0, ptr %6, align 8
  store i32 %1, ptr %7, align 4
  store i32 %2, ptr %8, align 4
  store i32 %3, ptr %9, align 4
  store i64 %4, ptr %10, align 8
  %11 = load i32, ptr %7, align 4
  %12 = call i32 (ptr, ...) @printf(ptr noundef @.str.56, i32 noundef %11)
  %13 = load ptr, ptr @stdout, align 8
  %14 = load ptr, ptr %6, align 8
  %15 = getelementptr inbounds %struct.Zyx_Man_t_, ptr %14, i32 0, i32 0
  %16 = load ptr, ptr %15, align 8
  %17 = getelementptr inbounds %struct.Bmc_EsPar_t_, ptr %16, i32 0, i32 0
  %18 = load i32, ptr %17, align 8
  call void @Extra_PrintBinary(ptr noundef %13, ptr noundef %8, i32 noundef %18)
  %19 = call i32 (ptr, ...) @printf(ptr noundef @.str.57)
  %20 = load ptr, ptr %6, align 8
  %21 = getelementptr inbounds %struct.Zyx_Man_t_, ptr %20, i32 0, i32 18
  %22 = load ptr, ptr %21, align 8
  %23 = call i32 @bmcg_sat_solver_clausenum(ptr noundef %22)
  %24 = call i32 (ptr, ...) @printf(ptr noundef @.str.58, i32 noundef %23)
  %25 = load i32, ptr %9, align 4
  %26 = call i32 (ptr, ...) @printf(ptr noundef @.str.59, i32 noundef %25)
  %27 = load ptr, ptr %6, align 8
  %28 = getelementptr inbounds %struct.Zyx_Man_t_, ptr %27, i32 0, i32 18
  %29 = load ptr, ptr %28, align 8
  %30 = call i32 @bmcg_sat_solver_conflictnum(ptr noundef %29)
  %31 = call i32 (ptr, ...) @printf(ptr noundef @.str.16, i32 noundef %30)
  %32 = load i64, ptr %10, align 8
  call void @Abc_PrintTime(i32 noundef 1, ptr noundef @.str.18, i64 noundef %32)
  ret void
}