; Function Attrs: nounwind uwtable
define internal fastcc void @Zyx_ManPrint(ptr noundef readonly captures(none) %0, i32 noundef %1, i32 noundef %2, i32 noundef %3, i64 noundef %4) unnamed_addr #2 {
  %6 = alloca i32, align 4
  store i32 %2, ptr %6, align 4
  %7 = tail call i32 (ptr, ...) @printf(ptr noundef nonnull dereferenceable(1) @.str.56, i32 noundef %1)
  %8 = load ptr, ptr @stdout, align 8
  %9 = load ptr, ptr %0, align 8
  %10 = load i32, ptr %9, align 8
  call void @Extra_PrintBinary(ptr noundef %8, ptr noundef nonnull %6, i32 noundef %10) #22
  %11 = call i32 (ptr, ...) @printf(ptr noundef nonnull dereferenceable(1) @.str.57)
  %12 = getelementptr inbounds nuw i8, ptr %0, i64 8808
  %13 = load ptr, ptr %12, align 8
  %14 = call i32 @bmcg_sat_solver_clausenum(ptr noundef %13) #22
  %15 = call i32 (ptr, ...) @printf(ptr noundef nonnull dereferenceable(1) @.str.58, i32 noundef %14)
  %16 = call i32 (ptr, ...) @printf(ptr noundef nonnull dereferenceable(1) @.str.59, i32 noundef %3)
  %17 = load ptr, ptr %12, align 8
  %18 = call i32 @bmcg_sat_solver_conflictnum(ptr noundef %17) #22
  %19 = call i32 (ptr, ...) @printf(ptr noundef nonnull dereferenceable(1) @.str.16, i32 noundef %18)
  call void (i32, ptr, ...) @Abc_Print(i32 poison, ptr noundef nonnull @.str.47, ptr noundef nonnull @.str.18)
  %20 = sitofp i64 %4 to double
  %21 = fdiv double %20, 1.000000e+06
  call void (i32, ptr, ...) @Abc_Print(i32 poison, ptr noundef nonnull @.str.48, double noundef %21)
  ret void
}